; Function Attrs: mustprogress uwtable
define void @_ZN15TCPStreamDialog26on_zoomRadioButton_toggledEb(ptr nocapture noundef nonnull align 8 dereferenceable(584) %0, i1 noundef zeroext %1) local_unnamed_addr #2 align 2 {
  %3 = alloca %class.QFlags.42, align 4
  br i1 %1, label %4, label %10

4:                                                ; preds = %2
  %5 = getelementptr inbounds i8, ptr %0, i64 472
  store i8 0, ptr %5, align 8
  %6 = getelementptr inbounds i8, ptr %0, i64 64
  %7 = load ptr, ptr %6, align 8
  %8 = getelementptr inbounds i8, ptr %7, i64 232
  %9 = load ptr, ptr %8, align 8
  store i32 0, ptr %3, align 4
  call void @_ZN11QCustomPlot15setInteractionsERK6QFlagsIN3QCP11InteractionEE(ptr noundef nonnull align 8 dereferenceable(513) %9, ptr noundef nonnull align 4 dereferenceable(4) %3)
  br label %10

10:                                               ; preds = %4, %2
  ret void
}